(lp1
I823
a(lp2
I5
aI18
aI31
aI40
aI53
aI66
aI76
aI89
aI102
aI112
aI127
aI142
aI155
aI165
aI180
aI195
aI208
aI218
aI233
aI248
aI261
aI271
aI286
aI301
aI314
aI324
aI339
aI354
aI367
aI377
aI392
aI407
aI420
aI430
aI445
aI460
aI473
aI483
aI498
aI513
aI526
aI536
aI551
aI566
aI579
aI589
aI604
aI619
aI632
aI642
aI657
aI672
aI685
aI707
aI715
aI750
aI758
aI796
aI804
aa(lp3
I9
aI10
aI22
aI23
aI44
aI45
aI57
aI58
aI80
aI81
aI93
aI94
aI116
aI117
aI131
aI132
aI146
aI147
aI169
aI170
aI184
aI185
aI199
aI200
aI222
aI223
aI237
aI238
aI252
aI253
aI275
aI276
aI290
aI291
aI305
aI306
aI328
aI329
aI343
aI344
aI358
aI359
aI381
aI382
aI396
aI397
aI411
aI412
aI434
aI435
aI449
aI450
aI464
aI465
aI487
aI488
aI502
aI503
aI517
aI518
aI540
aI541
aI555
aI556
aI570
aI571
aI593
aI594
aI608
aI609
aI623
aI624
aI646
aI647
aI661
aI662
aI676
aI677
aI693
aI694
aI702
aI703
aI736
aI737
aI745
aI746
aI766
aI767
aI791
aI792
aa(lp4
I3
aI14
aI16
aI27
aI38
aI49
aI51
aI62
aI74
aI85
aI87
aI98
aI110
aI121
aI123
aI125
aI136
aI138
aI140
aI151
aI163
aI174
aI176
aI178
aI189
aI191
aI193
aI204
aI216
aI227
aI229
aI231
aI242
aI244
aI246
aI257
aI269
aI280
aI282
aI284
aI295
aI297
aI299
aI310
aI322
aI333
aI335
aI337
aI348
aI350
aI352
aI363
aI375
aI386
aI388
aI390
aI401
aI403
aI405
aI416
aI428
aI439
aI441
aI443
aI454
aI456
aI458
aI469
aI481
aI492
aI494
aI496
aI507
aI509
aI511
aI522
aI534
aI545
aI547
aI549
aI560
aI562
aI564
aI575
aI587
aI598
aI600
aI602
aI613
aI615
aI617
aI628
aI640
aI651
aI653
aI655
aI666
aI668
aI670
aI681
aI776
aI778
aI782
aI784
aI812
aI814
aI818
aI820
aa(lp5
I8
aI11
aI21
aI24
aI43
aI46
aI56
aI59
aI79
aI82
aI92
aI95
aI115
aI118
aI130
aI133
aI145
aI148
aI168
aI171
aI183
aI186
aI198
aI201
aI221
aI224
aI236
aI239
aI251
aI254
aI274
aI277
aI289
aI292
aI304
aI307
aI327
aI330
aI342
aI345
aI357
aI360
aI380
aI383
aI395
aI398
aI410
aI413
aI433
aI436
aI448
aI451
aI463
aI466
aI486
aI489
aI501
aI504
aI516
aI519
aI539
aI542
aI554
aI557
aI569
aI572
aI592
aI595
aI607
aI610
aI622
aI625
aI645
aI648
aI660
aI663
aI675
aI678
aa.